; Function Attrs: mustprogress nounwind uwtable
define dso_local void @_ZN28btScaledBvhTriangleMeshShapeD0Ev(ptr noundef nonnull align 8 dereferenceable(64) %0) unnamed_addr #4 align 2 personality ptr @__gxx_personality_v0 {
  tail call void @_ZN14btConcaveShapeD2Ev(ptr noundef nonnull align 8 dereferenceable(64) %0) #15
  invoke void @_Z21btAlignedFreeInternalPv(ptr noundef nonnull %0)
          to label %_ZN28btScaledBvhTriangleMeshShapedlEPv.exit unwind label %2

2:                                                ; preds = %1
  %3 = landingpad { ptr, i32 }
          catch ptr null
  %4 = extractvalue { ptr, i32 } %3, 0
  tail call void @__clang_call_terminate(ptr %4) #16
  unreachable

_ZN28btScaledBvhTriangleMeshShapedlEPv.exit:      ; preds = %1
  ret void
}